target datalayout = "e-m:e-p270:32:32-p271:32:32-p272:64:64-i64:64-i128:128-f80:128-n8:16:32:64-S128"
target triple = "x86_64-pc-linux-gnu"

%class.btVector3 = type { [4 x float] }
%class.btGjkPairDetector = type <{ %struct.btDiscreteCollisionDetectorInterface, %class.btVector3, ptr, ptr, ptr, ptr, i32, i32, float, float, i8, [3 x i8], float, i32, i32, i32, i32, i32, [4 x i8] }>
%struct.btDiscreteCollisionDetectorInterface = type { ptr }
%class.btCollisionShape = type { ptr, i32, ptr, i32, i32 }

; Function Attrs: mustprogress nounwind uwtable
define linkonce_odr dso_local void @_ZN36btDiscreteCollisionDetectorInterfaceD2Ev(ptr noundef nonnull align 8 dereferenceable(8) %0) unnamed_addr #1 comdat align 2 {
  %2 = alloca ptr, align 8
  store ptr %0, ptr %2, align 8, !tbaa !40
  ret void
}

; Function Attrs: mustprogress nounwind uwtable
define linkonce_odr dso_local noundef i32 @_ZNK16btCollisionShape12getShapeTypeEv(ptr noundef nonnull align 8 dereferenceable(32) %0) #1 comdat align 2 {
  %2 = alloca ptr, align 8
  store ptr %0, ptr %2, align 8, !tbaa !46
  %3 = load ptr, ptr %2, align 8
  %4 = getelementptr inbounds nuw %class.btCollisionShape, ptr %3, i32 0, i32 1
  %5 = load i32, ptr %4, align 8, !tbaa !48
  ret i32 %5
}

; Function Attrs: inlinehint mustprogress nounwind uwtable
define linkonce_odr dso_local void @_ZN9btVector3C2ERKfS1_S1_(ptr noundef nonnull align 4 dereferenceable(16) %0, ptr noundef nonnull align 4 dereferenceable(4) %1, ptr noundef nonnull align 4 dereferenceable(4) %2, ptr noundef nonnull align 4 dereferenceable(4) %3) unnamed_addr #3 comdat align 2 {
  %5 = alloca ptr, align 8
  %6 = alloca ptr, align 8
  %7 = alloca ptr, align 8
  %8 = alloca ptr, align 8
  store ptr %0, ptr %5, align 8, !tbaa !42
  store ptr %1, ptr %6, align 8, !tbaa !44
  store ptr %2, ptr %7, align 8, !tbaa !44
  store ptr %3, ptr %8, align 8, !tbaa !44
  %9 = load ptr, ptr %5, align 8
  %10 = load ptr, ptr %6, align 8, !tbaa !44
  %11 = load float, ptr %10, align 4, !tbaa !22
  %12 = getelementptr inbounds nuw %class.btVector3, ptr %9, i32 0, i32 0
  %13 = getelementptr inbounds [4 x float], ptr %12, i64 0, i64 0
  store float %11, ptr %13, align 4, !tbaa !22
  %14 = load ptr, ptr %7, align 8, !tbaa !44
  %15 = load float, ptr %14, align 4, !tbaa !22
  %16 = getelementptr inbounds nuw %class.btVector3, ptr %9, i32 0, i32 0
  %17 = getelementptr inbounds [4 x float], ptr %16, i64 0, i64 1
  store float %15, ptr %17, align 4, !tbaa !22
  %18 = load ptr, ptr %8, align 8, !tbaa !44
  %19 = load float, ptr %18, align 4, !tbaa !22
  %20 = getelementptr inbounds nuw %class.btVector3, ptr %9, i32 0, i32 0
  %21 = getelementptr inbounds [4 x float], ptr %20, i64 0, i64 2
  store float %19, ptr %21, align 4, !tbaa !22
  %22 = getelementptr inbounds nuw %class.btVector3, ptr %9, i32 0, i32 0
  %23 = getelementptr inbounds [4 x float], ptr %22, i64 0, i64 3
  store float 0.000000e+00, ptr %23, align 4, !tbaa !22
  ret void
}

; Function Attrs: inlinehint mustprogress nounwind uwtable
define linkonce_odr dso_local void @_ZN36btDiscreteCollisionDetectorInterfaceC2Ev(ptr noundef nonnull align 8 dereferenceable(8) %0) unnamed_addr #3 comdat align 2 {
  %2 = alloca ptr, align 8
  store ptr %0, ptr %2, align 8, !tbaa !40
  %3 = load ptr, ptr %2, align 8
  store ptr getelementptr inbounds inrange(-16, 24) ({ [5 x ptr] }, ptr @_ZTV36btDiscreteCollisionDetectorInterface, i32 0, i32 0, i32 2), ptr %3, align 8, !tbaa !20
  ret void
}

; Function Attrs: mustprogress uwtable
define dso_local void @_ZN17btGjkPairDetectorC2EPK13btConvexShapeS2_P22btVoronoiSimplexSolverP30btConvexPenetrationDepthSolver(ptr noundef nonnull align 8 dereferenceable(100) %0, ptr noundef %1, ptr noundef %2, ptr noundef %3, ptr noundef %4) unnamed_addr #2 align 2 personality ptr @__gxx_personality_v0 {
  %6 = alloca ptr, align 8
  %7 = alloca ptr, align 8
  %8 = alloca ptr, align 8
  %9 = alloca ptr, align 8
  %10 = alloca ptr, align 8
  %11 = alloca float, align 4
  %12 = alloca float, align 4
  %13 = alloca float, align 4
  %14 = alloca ptr, align 8
  %15 = alloca i32, align 4
  store ptr %0, ptr %6, align 8, !tbaa !12
  store ptr %1, ptr %7, align 8, !tbaa !14
  store ptr %2, ptr %8, align 8, !tbaa !14
  store ptr %3, ptr %9, align 8, !tbaa !16
  store ptr %4, ptr %10, align 8, !tbaa !18
  %16 = load ptr, ptr %6, align 8
  call void @_ZN36btDiscreteCollisionDetectorInterfaceC2Ev(ptr noundef nonnull align 8 dereferenceable(8) %16) #14
  store ptr getelementptr inbounds inrange(-16, 24) ({ [5 x ptr] }, ptr @_ZTV17btGjkPairDetector, i32 0, i32 0, i32 2), ptr %16, align 8, !tbaa !20
  %17 = getelementptr inbounds nuw %class.btGjkPairDetector, ptr %16, i32 0, i32 1
  call void @llvm.lifetime.start.p0(i64 4, ptr %11) #14
  store float 0.000000e+00, ptr %11, align 4, !tbaa !22
  call void @llvm.lifetime.start.p0(i64 4, ptr %12) #14
  store float 1.000000e+00, ptr %12, align 4, !tbaa !22
  call void @llvm.lifetime.start.p0(i64 4, ptr %13) #14
  store float 0.000000e+00, ptr %13, align 4, !tbaa !22
  invoke void @_ZN9btVector3C2ERKfS1_S1_(ptr noundef nonnull align 4 dereferenceable(16) %17, ptr noundef nonnull align 4 dereferenceable(4) %11, ptr noundef nonnull align 4 dereferenceable(4) %12, ptr noundef nonnull align 4 dereferenceable(4) %13)
          to label %18 unwind label %53

18:                                               ; preds = %5
  call void @llvm.lifetime.end.p0(i64 4, ptr %13) #14
  call void @llvm.lifetime.end.p0(i64 4, ptr %12) #14
  call void @llvm.lifetime.end.p0(i64 4, ptr %11) #14
  %19 = getelementptr inbounds nuw %class.btGjkPairDetector, ptr %16, i32 0, i32 2
  %20 = load ptr, ptr %10, align 8, !tbaa !18
  store ptr %20, ptr %19, align 8, !tbaa !24
  %21 = getelementptr inbounds nuw %class.btGjkPairDetector, ptr %16, i32 0, i32 3
  %22 = load ptr, ptr %9, align 8, !tbaa !16
  store ptr %22, ptr %21, align 8, !tbaa !29
  %23 = getelementptr inbounds nuw %class.btGjkPairDetector, ptr %16, i32 0, i32 4
  %24 = load ptr, ptr %7, align 8, !tbaa !14
  store ptr %24, ptr %23, align 8, !tbaa !30
  %25 = getelementptr inbounds nuw %class.btGjkPairDetector, ptr %16, i32 0, i32 5
  %26 = load ptr, ptr %8, align 8, !tbaa !14
  store ptr %26, ptr %25, align 8, !tbaa !31
  %27 = getelementptr inbounds nuw %class.btGjkPairDetector, ptr %16, i32 0, i32 6
  %28 = load ptr, ptr %7, align 8, !tbaa !14
  %29 = invoke noundef i32 @_ZNK16btCollisionShape12getShapeTypeEv(ptr noundef nonnull align 8 dereferenceable(32) %28)
          to label %30 unwind label %57

30:                                               ; preds = %18
  store i32 %29, ptr %27, align 8, !tbaa !32
  %31 = getelementptr inbounds nuw %class.btGjkPairDetector, ptr %16, i32 0, i32 7
  %32 = load ptr, ptr %8, align 8, !tbaa !14
  %33 = invoke noundef i32 @_ZNK16btCollisionShape12getShapeTypeEv(ptr noundef nonnull align 8 dereferenceable(32) %32)
          to label %34 unwind label %57

34:                                               ; preds = %30
  store i32 %33, ptr %31, align 4, !tbaa !33
  %35 = getelementptr inbounds nuw %class.btGjkPairDetector, ptr %16, i32 0, i32 8
  %36 = load ptr, ptr %7, align 8, !tbaa !14
  %37 = load ptr, ptr %36, align 8, !tbaa !20
  %38 = getelementptr inbounds ptr, ptr %37, i64 12
  %39 = load ptr, ptr %38, align 8
  %40 = invoke noundef float %39(ptr noundef nonnull align 8 dereferenceable(32) %36)
          to label %41 unwind label %57

41:                                               ; preds = %34
  store float %40, ptr %35, align 8, !tbaa !34
  %42 = getelementptr inbounds nuw %class.btGjkPairDetector, ptr %16, i32 0, i32 9
  %43 = load ptr, ptr %8, align 8, !tbaa !14
  %44 = load ptr, ptr %43, align 8, !tbaa !20
  %45 = getelementptr inbounds ptr, ptr %44, i64 12
  %46 = load ptr, ptr %45, align 8
  %47 = invoke noundef float %46(ptr noundef nonnull align 8 dereferenceable(32) %43)
          to label %48 unwind label %57

48:                                               ; preds = %41
  store float %47, ptr %42, align 4, !tbaa !35
  %49 = getelementptr inbounds nuw %class.btGjkPairDetector, ptr %16, i32 0, i32 10
  store i8 0, ptr %49, align 8, !tbaa !36
  %50 = getelementptr inbounds nuw %class.btGjkPairDetector, ptr %16, i32 0, i32 13
  store i32 -1, ptr %50, align 8, !tbaa !37
  %51 = getelementptr inbounds nuw %class.btGjkPairDetector, ptr %16, i32 0, i32 16
  store i32 1, ptr %51, align 4, !tbaa !38
  %52 = getelementptr inbounds nuw %class.btGjkPairDetector, ptr %16, i32 0, i32 17
  store i32 1, ptr %52, align 8, !tbaa !39
  ret void

53:                                               ; preds = %5
  %54 = landingpad { ptr, i32 }
          cleanup
  %55 = extractvalue { ptr, i32 } %54, 0
  store ptr %55, ptr %14, align 8
  %56 = extractvalue { ptr, i32 } %54, 1
  store i32 %56, ptr %15, align 4
  call void @llvm.lifetime.end.p0(i64 4, ptr %13) #14
  call void @llvm.lifetime.end.p0(i64 4, ptr %12) #14
  call void @llvm.lifetime.end.p0(i64 4, ptr %11) #14
  br label %61

57:                                               ; preds = %41, %34, %30, %18
  %58 = landingpad { ptr, i32 }
          cleanup
  %59 = extractvalue { ptr, i32 } %58, 0
  store ptr %59, ptr %14, align 8
  %60 = extractvalue { ptr, i32 } %58, 1
  store i32 %60, ptr %15, align 4
  br label %61

61:                                               ; preds = %57, %53
  call void @_ZN36btDiscreteCollisionDetectorInterfaceD2Ev(ptr noundef nonnull align 8 dereferenceable(8) %16) #14
  br label %62

62:                                               ; preds = %61
  %63 = load ptr, ptr %14, align 8
  %64 = load i32, ptr %15, align 4
  %65 = insertvalue { ptr, i32 } poison, ptr %63, 0
  %66 = insertvalue { ptr, i32 } %65, i32 %64, 1
  resume { ptr, i32 } %66
}