; Function Attrs: mustprogress uwtable
define dso_local void @_ZN17btGjkPairDetectorC2EPK13btConvexShapeS2_P22btVoronoiSimplexSolverP30btConvexPenetrationDepthSolver(ptr noundef nonnull writeonly align 8 captures(none) dereferenceable(100) initializes((0, 73), (80, 84), (92, 100)) %0, ptr noundef %1, ptr noundef %2, ptr noundef %3, ptr noundef %4) unnamed_addr #0 align 2 personality ptr @__gxx_personality_v0 {
  store ptr getelementptr inbounds nuw inrange(-16, 24) (i8, ptr @_ZTV17btGjkPairDetector, i64 16), ptr %0, align 8, !tbaa !4
  %6 = getelementptr inbounds nuw i8, ptr %0, i64 8
  store float 0.000000e+00, ptr %6, align 8, !tbaa !7
  %7 = getelementptr inbounds nuw i8, ptr %0, i64 12
  store float 1.000000e+00, ptr %7, align 4, !tbaa !7
  %8 = getelementptr inbounds nuw i8, ptr %0, i64 16
  store float 0.000000e+00, ptr %8, align 8, !tbaa !7
  %9 = getelementptr inbounds nuw i8, ptr %0, i64 20
  store float 0.000000e+00, ptr %9, align 4, !tbaa !7
  %10 = getelementptr inbounds nuw i8, ptr %0, i64 24
  store ptr %4, ptr %10, align 8, !tbaa !10
  %11 = getelementptr inbounds nuw i8, ptr %0, i64 32
  store ptr %3, ptr %11, align 8, !tbaa !20
  %12 = getelementptr inbounds nuw i8, ptr %0, i64 40
  store ptr %1, ptr %12, align 8, !tbaa !21
  %13 = getelementptr inbounds nuw i8, ptr %0, i64 48
  store ptr %2, ptr %13, align 8, !tbaa !22
  %14 = getelementptr inbounds nuw i8, ptr %0, i64 56
  %15 = getelementptr inbounds nuw i8, ptr %1, i64 8
  %16 = load i32, ptr %15, align 8, !tbaa !23
  store i32 %16, ptr %14, align 8, !tbaa !25
  %17 = getelementptr inbounds nuw i8, ptr %0, i64 60
  %18 = getelementptr inbounds nuw i8, ptr %2, i64 8
  %19 = load i32, ptr %18, align 8, !tbaa !23
  store i32 %19, ptr %17, align 4, !tbaa !26
  %20 = load ptr, ptr %1, align 8, !tbaa !4
  %21 = getelementptr inbounds nuw i8, ptr %20, i64 96
  %22 = load ptr, ptr %21, align 8
  %23 = tail call noundef float %22(ptr noundef nonnull align 8 dereferenceable(32) %1)
  %24 = getelementptr inbounds nuw i8, ptr %0, i64 64
  store float %23, ptr %24, align 8, !tbaa !27
  %25 = load ptr, ptr %2, align 8, !tbaa !4
  %26 = getelementptr inbounds nuw i8, ptr %25, i64 96
  %27 = load ptr, ptr %26, align 8
  %28 = tail call noundef float %27(ptr noundef nonnull align 8 dereferenceable(32) %2)
  %29 = getelementptr inbounds nuw i8, ptr %0, i64 68
  store float %28, ptr %29, align 4, !tbaa !28
  %30 = getelementptr inbounds nuw i8, ptr %0, i64 72
  store i8 0, ptr %30, align 8, !tbaa !29
  %31 = getelementptr inbounds nuw i8, ptr %0, i64 80
  store i32 -1, ptr %31, align 8, !tbaa !30
  %32 = getelementptr inbounds nuw i8, ptr %0, i64 92
  store i32 1, ptr %32, align 4, !tbaa !31
  %33 = getelementptr inbounds nuw i8, ptr %0, i64 96
  store i32 1, ptr %33, align 8, !tbaa !32
  ret void
}